target datalayout = "e-m:e-p270:32:32-p271:32:32-p272:64:64-i64:64-i128:128-f80:128-n8:16:32:64-S128"
target triple = "x86_64-pc-linux-gnu"

%struct.Vec_Int_t_ = type { i32, i32, ptr }
%struct.Gia_Man_t_ = type { ptr, ptr, i32, i32, i32, i32, ptr, ptr, i32, i32, i32, ptr, ptr, %struct.Vec_Int_t_, %struct.Vec_Int_t_, i32, i32, i32, %struct.Vec_Int_t_, ptr, ptr, ptr, i32, i32, i32, i32, ptr, ptr, ptr, ptr, ptr, i32, i32, ptr, i32, ptr, ptr, ptr, ptr, ptr, ptr, ptr, ptr, ptr, ptr, ptr, ptr, ptr, ptr, ptr, ptr, ptr, ptr, %struct.Vec_Int_t_, %struct.Vec_Int_t_, ptr, ptr, ptr, ptr, ptr, ptr, ptr, ptr, ptr, ptr, ptr, ptr, ptr, ptr, ptr, ptr, ptr, ptr, ptr, ptr, ptr, i32, float, float, ptr, ptr, i32, ptr, ptr, ptr, ptr, ptr, ptr, ptr, ptr, ptr, ptr, ptr, ptr, ptr, ptr, ptr, i64, i64, ptr, ptr, i32, i32, i32, i32, i32, i32, i32, i32, i32, i32, i32, i32, ptr, ptr, ptr, ptr, ptr, ptr, ptr, ptr, i32, i32, i32, ptr, i32, i32, ptr, ptr, ptr, ptr, ptr, ptr, i32, i32, ptr, %struct.Vec_Int_t_, %struct.Vec_Int_t_, %struct.Vec_Int_t_, ptr, ptr, ptr }
%struct.Gia_Obj_t_ = type <{ i64, i32 }>

@__const.Acec_TreeVerifyPhaseOne.Truths = private unnamed_addr constant [3 x i32] [i32 170, i32 204, i32 240], align 4
@.str.3 = private unnamed_addr constant [26 x i8] c"Fadd %d sum %d is wrong.\0A\00", align 1
@.str.4 = private unnamed_addr constant [28 x i8] c"Fadd %d carry %d is wrong.\0A\00", align 1
@.str.5 = private unnamed_addr constant [26 x i8] c"Hadd %d sum %d is wrong.\0A\00", align 1
@.str.6 = private unnamed_addr constant [28 x i8] c"Hadd %d carry %d is wrong.\0A\00", align 1

; Function Attrs: nounwind uwtable
define internal i32 @Gia_ObjId(ptr noundef %0, ptr noundef %1) #0 {
  %3 = alloca ptr, align 8
  %4 = alloca ptr, align 8
  store ptr %0, ptr %3, align 8
  store ptr %1, ptr %4, align 8
  %5 = load ptr, ptr %4, align 8
  %6 = load ptr, ptr %3, align 8
  %7 = getelementptr inbounds %struct.Gia_Man_t_, ptr %6, i32 0, i32 6
  %8 = load ptr, ptr %7, align 8
  %9 = ptrtoint ptr %5 to i64
  %10 = ptrtoint ptr %8 to i64
  %11 = sub i64 %9, %10
  %12 = sdiv exact i64 %11, 12
  %13 = trunc i64 %12 to i32
  ret i32 %13
}

; Function Attrs: nounwind uwtable
define internal void @Gia_ObjSetTravIdCurrent(ptr noundef %0, ptr noundef %1) #0 {
  %3 = alloca ptr, align 8
  %4 = alloca ptr, align 8
  store ptr %0, ptr %3, align 8
  store ptr %1, ptr %4, align 8
  %5 = load ptr, ptr %3, align 8
  %6 = getelementptr inbounds %struct.Gia_Man_t_, ptr %5, i32 0, i32 24
  %7 = load i32, ptr %6, align 8
  %8 = load ptr, ptr %3, align 8
  %9 = getelementptr inbounds %struct.Gia_Man_t_, ptr %8, i32 0, i32 80
  %10 = load ptr, ptr %9, align 8
  %11 = load ptr, ptr %3, align 8
  %12 = load ptr, ptr %4, align 8
  %13 = call i32 @Gia_ObjId(ptr noundef %11, ptr noundef %12)
  %14 = sext i32 %13 to i64
  %15 = getelementptr inbounds i32, ptr %10, i64 %14
  store i32 %7, ptr %15, align 4
  ret void
}

; Function Attrs: nounwind uwtable
define internal ptr @Gia_ManObj(ptr noundef %0, i32 noundef %1) #0 {
  %3 = alloca ptr, align 8
  %4 = alloca i32, align 4
  store ptr %0, ptr %3, align 8
  store i32 %1, ptr %4, align 4
  %5 = load ptr, ptr %3, align 8
  %6 = getelementptr inbounds %struct.Gia_Man_t_, ptr %5, i32 0, i32 6
  %7 = load ptr, ptr %6, align 8
  %8 = load i32, ptr %4, align 4
  %9 = sext i32 %8 to i64
  %10 = getelementptr inbounds %struct.Gia_Obj_t_, ptr %7, i64 %9
  ret ptr %10
}

; Function Attrs: nounwind uwtable
define internal i32 @Acec_SignBit2(ptr noundef %0, i32 noundef %1, i32 noundef %2) #0 {
  %4 = alloca ptr, align 8
  %5 = alloca i32, align 4
  %6 = alloca i32, align 4
  store ptr %0, ptr %4, align 8
  store i32 %1, ptr %5, align 4
  store i32 %2, ptr %6, align 4
  %7 = load ptr, ptr %4, align 8
  %8 = load i32, ptr %5, align 4
  %9 = mul nsw i32 6, %8
  %10 = add nsw i32 %9, 5
  %11 = call i32 @Vec_IntEntry(ptr noundef %7, i32 noundef %10)
  %12 = load i32, ptr %6, align 4
  %13 = add nsw i32 16, %12
  %14 = ashr i32 %11, %13
  %15 = and i32 %14, 1
  ret i32 %15
}

; Function Attrs: nounwind uwtable
define internal i32 @Vec_IntEntry(ptr noundef %0, i32 noundef %1) #0 {
  %3 = alloca ptr, align 8
  %4 = alloca i32, align 4
  store ptr %0, ptr %3, align 8
  store i32 %1, ptr %4, align 4
  %5 = load ptr, ptr %3, align 8
  %6 = getelementptr inbounds %struct.Vec_Int_t_, ptr %5, i32 0, i32 2
  %7 = load ptr, ptr %6, align 8
  %8 = load i32, ptr %4, align 4
  %9 = sext i32 %8 to i64
  %10 = getelementptr inbounds i32, ptr %7, i64 %9
  %11 = load i32, ptr %10, align 4
  ret i32 %11
}

; Function Attrs: nounwind uwtable
define void @Acec_TreeVerifyPhaseOne(ptr noundef %0, ptr noundef %1, i32 noundef %2) #0 {
  %4 = alloca ptr, align 8
  %5 = alloca ptr, align 8
  %6 = alloca i32, align 4
  %7 = alloca ptr, align 8
  %8 = alloca i32, align 4
  %9 = alloca i32, align 4
  %10 = alloca [3 x i32], align 4
  %11 = alloca i32, align 4
  %12 = alloca i32, align 4
  %13 = alloca i32, align 4
  %14 = alloca i32, align 4
  store ptr %0, ptr %4, align 8
  store ptr %1, ptr %5, align 8
  store i32 %2, ptr %6, align 4
  call void @llvm.memcpy.p0.p0.i64(ptr align 4 %10, ptr align 4 @__const.Acec_TreeVerifyPhaseOne.Truths, i64 12, i1 false)
  %15 = load ptr, ptr %5, align 8
  %16 = load i32, ptr %6, align 4
  %17 = mul nsw i32 6, %16
  %18 = add nsw i32 %17, 2
  %19 = call i32 @Vec_IntEntry(ptr noundef %15, i32 noundef %18)
  %20 = icmp sgt i32 %19, 0
  %21 = zext i1 %20 to i32
  store i32 %21, ptr %13, align 4
  %22 = load i32, ptr %13, align 4
  %23 = icmp ne i32 %22, 0
  br i1 %23, label %29, label %24

24:                                               ; preds = %3
  %25 = load ptr, ptr %5, align 8
  %26 = load i32, ptr %6, align 4
  %27 = call i32 @Acec_SignBit2(ptr noundef %25, i32 noundef %26, i32 noundef 2)
  %28 = icmp ne i32 %27, 0
  br label %29

29:                                               ; preds = %24, %3
  %30 = phi i1 [ false, %3 ], [ %28, %24 ]
  %31 = zext i1 %30 to i32
  store i32 %31, ptr %14, align 4
  %32 = load ptr, ptr %4, align 8
  call void @Gia_ManIncrementTravId(ptr noundef %32)
  store i32 0, ptr %11, align 4
  br label %33

33:                                               ; preds = %75, %29
  %34 = load i32, ptr %11, align 4
  %35 = icmp slt i32 %34, 3
  br i1 %35, label %36, label %78

36:                                               ; preds = %33
  %37 = load ptr, ptr %5, align 8
  %38 = load i32, ptr %6, align 4
  %39 = mul nsw i32 6, %38
  %40 = load i32, ptr %11, align 4
  %41 = add nsw i32 %39, %40
  %42 = call i32 @Vec_IntEntry(ptr noundef %37, i32 noundef %41)
  store i32 %42, ptr %12, align 4
  %43 = load i32, ptr %12, align 4
  %44 = icmp eq i32 %43, 0
  br i1 %44, label %45, label %46

45:                                               ; preds = %36
  br label %75

46:                                               ; preds = %36
  %47 = load ptr, ptr %4, align 8
  %48 = load i32, ptr %12, align 4
  %49 = call ptr @Gia_ManObj(ptr noundef %47, i32 noundef %48)
  store ptr %49, ptr %7, align 8
  %50 = load ptr, ptr %5, align 8
  %51 = load i32, ptr %6, align 4
  %52 = load i32, ptr %11, align 4
  %53 = call i32 @Acec_SignBit2(ptr noundef %50, i32 noundef %51, i32 noundef %52)
  %54 = load i32, ptr %14, align 4
  %55 = xor i32 %53, %54
  %56 = icmp ne i32 %55, 0
  br i1 %56, label %57, label %64

57:                                               ; preds = %46
  %58 = load i32, ptr %11, align 4
  %59 = sext i32 %58 to i64
  %60 = getelementptr inbounds [3 x i32], ptr %10, i64 0, i64 %59
  %61 = load i32, ptr %60, align 4
  %62 = xor i32 %61, -1
  %63 = and i32 255, %62
  br label %69

64:                                               ; preds = %46
  %65 = load i32, ptr %11, align 4
  %66 = sext i32 %65 to i64
  %67 = getelementptr inbounds [3 x i32], ptr %10, i64 0, i64 %66
  %68 = load i32, ptr %67, align 4
  br label %69

69:                                               ; preds = %64, %57
  %70 = phi i32 [ %63, %57 ], [ %68, %64 ]
  %71 = load ptr, ptr %7, align 8
  %72 = getelementptr inbounds %struct.Gia_Obj_t_, ptr %71, i32 0, i32 1
  store i32 %70, ptr %72, align 4
  %73 = load ptr, ptr %4, align 8
  %74 = load ptr, ptr %7, align 8
  call void @Gia_ObjSetTravIdCurrent(ptr noundef %73, ptr noundef %74)
  br label %75

75:                                               ; preds = %69, %45
  %76 = load i32, ptr %11, align 4
  %77 = add nsw i32 %76, 1
  store i32 %77, ptr %11, align 4
  br label %33, !llvm.loop !17

78:                                               ; preds = %33
  %79 = load ptr, ptr %5, align 8
  %80 = load i32, ptr %6, align 4
  %81 = mul nsw i32 6, %80
  %82 = add nsw i32 %81, 3
  %83 = call i32 @Vec_IntEntry(ptr noundef %79, i32 noundef %82)
  store i32 %83, ptr %12, align 4
  %84 = load ptr, ptr %4, align 8
  %85 = load ptr, ptr %4, align 8
  %86 = load i32, ptr %12, align 4
  %87 = call ptr @Gia_ManObj(ptr noundef %85, i32 noundef %86)
  %88 = call i32 @Acec_TreeVerifyPhaseOne_rec(ptr noundef %84, ptr noundef %87)
  store i32 %88, ptr %8, align 4
  %89 = load ptr, ptr %5, align 8
  %90 = load i32, ptr %6, align 4
  %91 = call i32 @Acec_SignBit2(ptr noundef %89, i32 noundef %90, i32 noundef 3)
  %92 = load i32, ptr %14, align 4
  %93 = xor i32 %91, %92
  %94 = icmp ne i32 %93, 0
  br i1 %94, label %95, label %99

95:                                               ; preds = %78
  %96 = load i32, ptr %8, align 4
  %97 = xor i32 %96, -1
  %98 = and i32 255, %97
  br label %101

99:                                               ; preds = %78
  %100 = load i32, ptr %8, align 4
  br label %101

101:                                              ; preds = %99, %95
  %102 = phi i32 [ %98, %95 ], [ %100, %99 ]
  store i32 %102, ptr %8, align 4
  %103 = load ptr, ptr %5, align 8
  %104 = load i32, ptr %6, align 4
  %105 = mul nsw i32 6, %104
  %106 = add nsw i32 %105, 4
  %107 = call i32 @Vec_IntEntry(ptr noundef %103, i32 noundef %106)
  store i32 %107, ptr %12, align 4
  %108 = load ptr, ptr %4, align 8
  %109 = load ptr, ptr %4, align 8
  %110 = load i32, ptr %12, align 4
  %111 = call ptr @Gia_ManObj(ptr noundef %109, i32 noundef %110)
  %112 = call i32 @Acec_TreeVerifyPhaseOne_rec(ptr noundef %108, ptr noundef %111)
  store i32 %112, ptr %9, align 4
  %113 = load ptr, ptr %5, align 8
  %114 = load i32, ptr %6, align 4
  %115 = call i32 @Acec_SignBit2(ptr noundef %113, i32 noundef %114, i32 noundef 4)
  %116 = load i32, ptr %14, align 4
  %117 = xor i32 %115, %116
  %118 = icmp ne i32 %117, 0
  br i1 %118, label %119, label %123

119:                                              ; preds = %101
  %120 = load i32, ptr %9, align 4
  %121 = xor i32 %120, -1
  %122 = and i32 255, %121
  br label %125

123:                                              ; preds = %101
  %124 = load i32, ptr %9, align 4
  br label %125

125:                                              ; preds = %123, %119
  %126 = phi i32 [ %122, %119 ], [ %124, %123 ]
  store i32 %126, ptr %9, align 4
  %127 = load i32, ptr %13, align 4
  %128 = icmp ne i32 %127, 0
  br i1 %128, label %129, label %152

129:                                              ; preds = %125
  %130 = load i32, ptr %8, align 4
  %131 = icmp ne i32 %130, 150
  br i1 %131, label %132, label %140

132:                                              ; preds = %129
  %133 = load i32, ptr %6, align 4
  %134 = load ptr, ptr %5, align 8
  %135 = load i32, ptr %6, align 4
  %136 = mul nsw i32 6, %135
  %137 = add nsw i32 %136, 3
  %138 = call i32 @Vec_IntEntry(ptr noundef %134, i32 noundef %137)
  %139 = call i32 (ptr, ...) @printf(ptr noundef @.str.3, i32 noundef %133, i32 noundef %138)
  br label %140

140:                                              ; preds = %132, %129
  %141 = load i32, ptr %9, align 4
  %142 = icmp ne i32 %141, 232
  br i1 %142, label %143, label %151

143:                                              ; preds = %140
  %144 = load i32, ptr %6, align 4
  %145 = load ptr, ptr %5, align 8
  %146 = load i32, ptr %6, align 4
  %147 = mul nsw i32 6, %146
  %148 = add nsw i32 %147, 4
  %149 = call i32 @Vec_IntEntry(ptr noundef %145, i32 noundef %148)
  %150 = call i32 (ptr, ...) @printf(ptr noundef @.str.4, i32 noundef %144, i32 noundef %149)
  br label %151

151:                                              ; preds = %143, %140
  br label %175

152:                                              ; preds = %125
  %153 = load i32, ptr %8, align 4
  %154 = icmp ne i32 %153, 102
  br i1 %154, label %155, label %163

155:                                              ; preds = %152
  %156 = load i32, ptr %6, align 4
  %157 = load ptr, ptr %5, align 8
  %158 = load i32, ptr %6, align 4
  %159 = mul nsw i32 6, %158
  %160 = add nsw i32 %159, 3
  %161 = call i32 @Vec_IntEntry(ptr noundef %157, i32 noundef %160)
  %162 = call i32 (ptr, ...) @printf(ptr noundef @.str.5, i32 noundef %156, i32 noundef %161)
  br label %163

163:                                              ; preds = %155, %152
  %164 = load i32, ptr %9, align 4
  %165 = icmp ne i32 %164, 136
  br i1 %165, label %166, label %174

166:                                              ; preds = %163
  %167 = load i32, ptr %6, align 4
  %168 = load ptr, ptr %5, align 8
  %169 = load i32, ptr %6, align 4
  %170 = mul nsw i32 6, %169
  %171 = add nsw i32 %170, 4
  %172 = call i32 @Vec_IntEntry(ptr noundef %168, i32 noundef %171)
  %173 = call i32 (ptr, ...) @printf(ptr noundef @.str.6, i32 noundef %167, i32 noundef %172)
  br label %174

174:                                              ; preds = %166, %163
  br label %175

175:                                              ; preds = %174, %151
  ret void
}