; Function Attrs: nounwind uwtable
define void @Acec_TreeVerifyPhaseOne(ptr noundef %0, ptr noundef readonly captures(none) %1, i32 noundef %2) local_unnamed_addr #0 {
  %4 = mul nsw i32 %2, 6
  %5 = getelementptr i8, ptr %1, i64 8
  %.val72 = load ptr, ptr %5, align 8
  %6 = sext i32 %4 to i64
  %7 = getelementptr i32, ptr %.val72, i64 %6
  %8 = getelementptr i8, ptr %7, i64 8
  %9 = load i32, ptr %8, align 4
  %10 = icmp sgt i32 %9, 0
  br i1 %10, label %16, label %11

11:                                               ; preds = %3
  %12 = getelementptr i8, ptr %7, i64 20
  %13 = load i32, ptr %12, align 4
  %14 = lshr i32 %13, 18
  %15 = and i32 %14, 1
  br label %16

16:                                               ; preds = %11, %3
  %17 = phi i32 [ 0, %3 ], [ %15, %11 ]
  tail call void @Gia_ManIncrementTravId(ptr noundef %0) #21
  %18 = getelementptr i8, ptr %0, i64 32
  %19 = getelementptr inbounds nuw i8, ptr %0, i64 176
  %20 = getelementptr inbounds nuw i8, ptr %0, i64 616
  br label %21

21:                                               ; preds = %16, %50
  %indvars.iv = phi i64 [ 0, %16 ], [ %indvars.iv.next, %50 ]
  %.val71 = load ptr, ptr %5, align 8
  %22 = getelementptr i32, ptr %.val71, i64 %indvars.iv
  %23 = getelementptr i32, ptr %22, i64 %6
  %24 = load i32, ptr %23, align 4
  %25 = icmp eq i32 %24, 0
  br i1 %25, label %50, label %26

26:                                               ; preds = %21
  %.val75 = load ptr, ptr %18, align 8
  %27 = sext i32 %24 to i64
  %28 = getelementptr inbounds %struct.Gia_Obj_t_, ptr %.val75, i64 %27
  %29 = getelementptr i32, ptr %.val71, i64 %6
  %30 = getelementptr i8, ptr %29, i64 20
  %31 = load i32, ptr %30, align 4
  %32 = trunc i64 %indvars.iv to i32
  %33 = or i32 %32, 16
  %34 = lshr i32 %31, %33
  %35 = and i32 %34, 1
  %.not65 = icmp eq i32 %35, %17
  %36 = getelementptr inbounds nuw [3 x i32], ptr @__const.Acec_TreeVerifyPhaseOne.Truths, i64 0, i64 %indvars.iv
  %37 = load i32, ptr %36, align 4
  %38 = and i32 %37, 255
  %39 = xor i32 %38, 255
  %40 = select i1 %.not65, i32 %37, i32 %39
  %41 = getelementptr inbounds nuw i8, ptr %28, i64 8
  store i32 %40, ptr %41, align 4
  %42 = load i32, ptr %19, align 8
  %43 = load ptr, ptr %20, align 8
  %.val.i = load ptr, ptr %18, align 8
  %44 = ptrtoint ptr %28 to i64
  %45 = ptrtoint ptr %.val.i to i64
  %46 = sub i64 %44, %45
  %47 = sdiv exact i64 %46, 12
  %sext.i = shl i64 %47, 32
  %48 = ashr exact i64 %sext.i, 30
  %49 = getelementptr inbounds i8, ptr %43, i64 %48
  store i32 %42, ptr %49, align 4
  br label %50

50:                                               ; preds = %21, %26
  %indvars.iv.next = add nuw nsw i64 %indvars.iv, 1
  %exitcond.not = icmp eq i64 %indvars.iv.next, 3
  br i1 %exitcond.not, label %51, label %21, !llvm.loop !18

51:                                               ; preds = %50
  %52 = add nsw i32 %4, 3
  %.val70 = load ptr, ptr %5, align 8
  %53 = sext i32 %52 to i64
  %54 = getelementptr inbounds i32, ptr %.val70, i64 %53
  %55 = load i32, ptr %54, align 4
  %.val74 = load ptr, ptr %18, align 8
  %56 = sext i32 %55 to i64
  %57 = getelementptr inbounds %struct.Gia_Obj_t_, ptr %.val74, i64 %56
  %58 = tail call i32 @Acec_TreeVerifyPhaseOne_rec(ptr noundef %0, ptr noundef %57)
  %.val78 = load ptr, ptr %5, align 8
  %59 = getelementptr i32, ptr %.val78, i64 %6
  %60 = getelementptr i8, ptr %59, i64 20
  %61 = load i32, ptr %60, align 4
  %62 = lshr i32 %61, 19
  %63 = and i32 %62, 1
  %.not = icmp eq i32 %63, %17
  %64 = and i32 %58, 255
  %65 = xor i32 %64, 255
  %66 = select i1 %.not, i32 %58, i32 %65
  %67 = add nsw i32 %4, 4
  %68 = sext i32 %67 to i64
  %69 = getelementptr inbounds i32, ptr %.val78, i64 %68
  %70 = load i32, ptr %69, align 4
  %.val73 = load ptr, ptr %18, align 8
  %71 = sext i32 %70 to i64
  %72 = getelementptr inbounds %struct.Gia_Obj_t_, ptr %.val73, i64 %71
  %73 = tail call i32 @Acec_TreeVerifyPhaseOne_rec(ptr noundef %0, ptr noundef %72)
  %.val79 = load ptr, ptr %5, align 8
  %74 = getelementptr i32, ptr %.val79, i64 %6
  %75 = getelementptr i8, ptr %74, i64 20
  %76 = load i32, ptr %75, align 4
  %77 = lshr i32 %76, 20
  %78 = and i32 %77, 1
  %.not60 = icmp eq i32 %78, %17
  %79 = and i32 %73, 255
  %80 = xor i32 %79, 255
  %81 = select i1 %.not60, i32 %73, i32 %80
  br i1 %10, label %82, label %88

82:                                               ; preds = %51
  %.not63 = icmp eq i32 %66, 150
  br i1 %.not63, label %87, label %83

83:                                               ; preds = %82
  %84 = getelementptr inbounds i32, ptr %.val79, i64 %53
  %85 = load i32, ptr %84, align 4
  %86 = tail call i32 (ptr, ...) @printf(ptr noundef nonnull dereferenceable(1) @.str.3, i32 noundef %2, i32 noundef %85)
  br label %87

87:                                               ; preds = %83, %82
  %.not64 = icmp eq i32 %81, 232
  br i1 %.not64, label %97, label %.sink.split

88:                                               ; preds = %51
  %.not61 = icmp eq i32 %66, 102
  br i1 %.not61, label %93, label %89

89:                                               ; preds = %88
  %90 = getelementptr inbounds i32, ptr %.val79, i64 %53
  %91 = load i32, ptr %90, align 4
  %92 = tail call i32 (ptr, ...) @printf(ptr noundef nonnull dereferenceable(1) @.str.5, i32 noundef %2, i32 noundef %91)
  br label %93

93:                                               ; preds = %89, %88
  %.not62 = icmp eq i32 %81, 136
  br i1 %.not62, label %97, label %.sink.split

.sink.split:                                      ; preds = %93, %87
  %.str.6.sink = phi ptr [ @.str.4, %87 ], [ @.str.6, %93 ]
  %.val = load ptr, ptr %5, align 8
  %94 = getelementptr inbounds i32, ptr %.val, i64 %68
  %95 = load i32, ptr %94, align 4
  %96 = tail call i32 (ptr, ...) @printf(ptr noundef nonnull dereferenceable(1) %.str.6.sink, i32 noundef %2, i32 noundef %95)
  br label %97

97:                                               ; preds = %.sink.split, %93, %87
  ret void
}